; Function Attrs: mustprogress nofree norecurse nosync nounwind willreturn memory(read, inaccessiblemem: none) uwtable
define range(i32 0, 2) i32 @Abc_NodeIsMuxControlType(ptr noundef readonly captures(none) %0) local_unnamed_addr #4 {
  %2 = getelementptr i8, ptr %0, i64 44
  %.val10 = load i32, ptr %2, align 4
  %.not = icmp eq i32 %.val10, 2
  br i1 %.not, label %3, label %34

3:                                                ; preds = %1
  %.val13 = load ptr, ptr %0, align 8
  %4 = getelementptr i8, ptr %0, i64 48
  %.val14 = load ptr, ptr %4, align 8
  %5 = getelementptr i8, ptr %.val13, i64 32
  %.val13.val = load ptr, ptr %5, align 8
  %6 = getelementptr i8, ptr %.val13.val, i64 8
  %.val13.val.val = load ptr, ptr %6, align 8
  %7 = load i32, ptr %.val14, align 4
  %8 = sext i32 %7 to i64
  %9 = getelementptr inbounds ptr, ptr %.val13.val.val, i64 %8
  %10 = load ptr, ptr %9, align 8
  %11 = getelementptr inbounds nuw i8, ptr %.val14, i64 4
  %12 = load i32, ptr %11, align 4
  %13 = sext i32 %12 to i64
  %14 = getelementptr inbounds ptr, ptr %.val13.val.val, i64 %13
  %15 = load ptr, ptr %14, align 8
  %16 = getelementptr i8, ptr %10, i64 44
  %.val9 = load i32, ptr %16, align 4
  %.not7 = icmp eq i32 %.val9, 1
  br i1 %.not7, label %17, label %34

17:                                               ; preds = %3
  %18 = getelementptr i8, ptr %15, i64 44
  %.val = load i32, ptr %18, align 4
  %.not8 = icmp eq i32 %.val, 1
  br i1 %.not8, label %19, label %34

19:                                               ; preds = %17
  %.val15 = load ptr, ptr %10, align 8
  %20 = getelementptr i8, ptr %10, i64 48
  %.val16 = load ptr, ptr %20, align 8
  %21 = getelementptr i8, ptr %.val15, i64 32
  %.val15.val = load ptr, ptr %21, align 8
  %.val16.val = load i32, ptr %.val16, align 4
  %22 = getelementptr i8, ptr %.val15.val, i64 8
  %.val15.val.val = load ptr, ptr %22, align 8
  %23 = sext i32 %.val16.val to i64
  %24 = getelementptr inbounds ptr, ptr %.val15.val.val, i64 %23
  %25 = load ptr, ptr %24, align 8
  %.val17 = load ptr, ptr %15, align 8
  %26 = getelementptr i8, ptr %15, i64 48
  %.val18 = load ptr, ptr %26, align 8
  %27 = getelementptr i8, ptr %.val17, i64 32
  %.val17.val = load ptr, ptr %27, align 8
  %.val18.val = load i32, ptr %.val18, align 4
  %28 = getelementptr i8, ptr %.val17.val, i64 8
  %.val17.val.val = load ptr, ptr %28, align 8
  %29 = sext i32 %.val18.val to i64
  %30 = getelementptr inbounds ptr, ptr %.val17.val.val, i64 %29
  %31 = load ptr, ptr %30, align 8
  %32 = icmp eq ptr %25, %31
  %33 = zext i1 %32 to i32
  br label %34

34:                                               ; preds = %3, %17, %1, %19
  %.0 = phi i32 [ %33, %19 ], [ 0, %1 ], [ 0, %17 ], [ 0, %3 ]
  ret i32 %.0
}